target datalayout = "e-m:e-p270:32:32-p271:32:32-p272:64:64-i64:64-i128:128-f80:128-n8:16:32:64-S128"
target triple = "x86_64-pc-linux-gnu"

%struct.prov_aes_gcm_siv_ctx_st = type { ptr, ptr, ptr, ptr, ptr, i64, i64, [32 x i8], [32 x i8], [16 x i8], [16 x i8], [16 x i8], [12 x i8], [16 x %struct.u128], i8 }
%struct.u128 = type { i64, i64 }
%struct.ossl_param_st = type { ptr, i32, ptr, i64, i64 }

@.str = private unnamed_addr constant [66 x i8] c"../openssl/providers/implementations/ciphers/cipher_aes_gcm_siv.c\00", align 1
@.str.1 = private unnamed_addr constant [4 x i8] c"tag\00", align 1
@.str.3 = private unnamed_addr constant [7 x i8] c"keylen\00", align 1
@__func__.ossl_aes_gcm_siv_set_ctx_params = private unnamed_addr constant [32 x i8] c"ossl_aes_gcm_siv_set_ctx_params\00", align 1
@.str.5 = private unnamed_addr constant [6 x i8] c"speed\00", align 1

; Function Attrs: inlinehint nounwind uwtable
define internal i32 @ossl_param_is_empty(ptr noundef %0) #4 {
  %2 = alloca ptr, align 8
  store ptr %0, ptr %2, align 8, !tbaa !26
  %3 = load ptr, ptr %2, align 8, !tbaa !26
  %4 = icmp eq ptr %3, null
  br i1 %4, label %10, label %5

5:                                                ; preds = %1
  %6 = load ptr, ptr %2, align 8, !tbaa !26
  %7 = getelementptr inbounds nuw %struct.ossl_param_st, ptr %6, i32 0, i32 0
  %8 = load ptr, ptr %7, align 8, !tbaa !40
  %9 = icmp eq ptr %8, null
  br label %10

10:                                               ; preds = %5, %1
  %11 = phi i1 [ true, %1 ], [ %9, %5 ]
  %12 = zext i1 %11 to i32
  ret i32 %12
}

; Function Attrs: nounwind uwtable
define internal i32 @ossl_aes_gcm_siv_set_ctx_params(ptr noundef %0, ptr noundef %1) #0 {
  %3 = alloca i32, align 4
  %4 = alloca ptr, align 8
  %5 = alloca ptr, align 8
  %6 = alloca ptr, align 8
  %7 = alloca ptr, align 8
  %8 = alloca i32, align 4
  %9 = alloca i32, align 4
  %10 = alloca i64, align 8
  store ptr %0, ptr %4, align 8, !tbaa !3
  store ptr %1, ptr %5, align 8, !tbaa !26
  call void @llvm.lifetime.start.p0(i64 8, ptr %6) #5
  %11 = load ptr, ptr %4, align 8, !tbaa !3
  store ptr %11, ptr %6, align 8, !tbaa !7
  call void @llvm.lifetime.start.p0(i64 8, ptr %7) #5
  call void @llvm.lifetime.start.p0(i64 4, ptr %8) #5
  store i32 0, ptr %8, align 4, !tbaa !30
  %12 = load ptr, ptr %5, align 8, !tbaa !26
  %13 = call i32 @ossl_param_is_empty(ptr noundef %12)
  %14 = icmp ne i32 %13, 0
  br i1 %14, label %15, label %16

15:                                               ; preds = %2
  store i32 1, ptr %3, align 4
  store i32 1, ptr %9, align 4
  br label %98

16:                                               ; preds = %2
  %17 = load ptr, ptr %5, align 8, !tbaa !26
  %18 = call ptr @OSSL_PARAM_locate_const(ptr noundef %17, ptr noundef @.str.1)
  store ptr %18, ptr %7, align 8, !tbaa !26
  %19 = load ptr, ptr %7, align 8, !tbaa !26
  %20 = icmp ne ptr %19, null
  br i1 %20, label %21, label %52

21:                                               ; preds = %16
  %22 = load ptr, ptr %7, align 8, !tbaa !26
  %23 = getelementptr inbounds nuw %struct.ossl_param_st, ptr %22, i32 0, i32 1
  %24 = load i32, ptr %23, align 8, !tbaa !32
  %25 = icmp ne i32 %24, 5
  br i1 %25, label %31, label %26

26:                                               ; preds = %21
  %27 = load ptr, ptr %7, align 8, !tbaa !26
  %28 = getelementptr inbounds nuw %struct.ossl_param_st, ptr %27, i32 0, i32 3
  %29 = load i64, ptr %28, align 8, !tbaa !34
  %30 = icmp ne i64 %29, 16
  br i1 %30, label %31, label %32

31:                                               ; preds = %26, %21
  call void @ERR_new()
  call void @ERR_set_debug(ptr noundef @.str, i32 noundef 228, ptr noundef @__func__.ossl_aes_gcm_siv_set_ctx_params)
  call void (i32, i32, ptr, ...) @ERR_set_error(i32 noundef 57, i32 noundef 103, ptr noundef null)
  store i32 0, ptr %3, align 4
  store i32 1, ptr %9, align 4
  br label %98

32:                                               ; preds = %26
  %33 = load ptr, ptr %6, align 8, !tbaa !7
  %34 = getelementptr inbounds nuw %struct.prov_aes_gcm_siv_ctx_st, ptr %33, i32 0, i32 14
  %35 = load i8, ptr %34, align 8
  %36 = and i8 %35, 1
  %37 = zext i8 %36 to i32
  %38 = icmp ne i32 %37, 0
  br i1 %38, label %51, label %39

39:                                               ; preds = %32
  %40 = load ptr, ptr %6, align 8, !tbaa !7
  %41 = getelementptr inbounds nuw %struct.prov_aes_gcm_siv_ctx_st, ptr %40, i32 0, i32 11
  %42 = getelementptr inbounds [16 x i8], ptr %41, i64 0, i64 0
  %43 = load ptr, ptr %7, align 8, !tbaa !26
  %44 = getelementptr inbounds nuw %struct.ossl_param_st, ptr %43, i32 0, i32 2
  %45 = load ptr, ptr %44, align 8, !tbaa !36
  call void @llvm.memcpy.p0.p0.i64(ptr align 8 %42, ptr align 1 %45, i64 16, i1 false)
  %46 = load ptr, ptr %6, align 8, !tbaa !7
  %47 = getelementptr inbounds nuw %struct.prov_aes_gcm_siv_ctx_st, ptr %46, i32 0, i32 14
  %48 = load i8, ptr %47, align 8
  %49 = and i8 %48, -3
  %50 = or i8 %49, 2
  store i8 %50, ptr %47, align 8
  br label %51

51:                                               ; preds = %39, %32
  br label %52

52:                                               ; preds = %51, %16
  %53 = load ptr, ptr %5, align 8, !tbaa !26
  %54 = call ptr @OSSL_PARAM_locate_const(ptr noundef %53, ptr noundef @.str.5)
  store ptr %54, ptr %7, align 8, !tbaa !26
  %55 = load ptr, ptr %7, align 8, !tbaa !26
  %56 = icmp ne ptr %55, null
  br i1 %56, label %57, label %76

57:                                               ; preds = %52
  %58 = load ptr, ptr %7, align 8, !tbaa !26
  %59 = call i32 @OSSL_PARAM_get_uint(ptr noundef %58, ptr noundef %8)
  %60 = icmp ne i32 %59, 0
  br i1 %60, label %62, label %61

61:                                               ; preds = %57
  call void @ERR_new()
  call void @ERR_set_debug(ptr noundef @.str, i32 noundef 239, ptr noundef @__func__.ossl_aes_gcm_siv_set_ctx_params)
  call void (i32, i32, ptr, ...) @ERR_set_error(i32 noundef 57, i32 noundef 103, ptr noundef null)
  store i32 0, ptr %3, align 4
  store i32 1, ptr %9, align 4
  br label %98

62:                                               ; preds = %57
  %63 = load i32, ptr %8, align 4, !tbaa !30
  %64 = icmp ne i32 %63, 0
  %65 = xor i1 %64, true
  %66 = xor i1 %65, true
  %67 = zext i1 %66 to i32
  %68 = load ptr, ptr %6, align 8, !tbaa !7
  %69 = getelementptr inbounds nuw %struct.prov_aes_gcm_siv_ctx_st, ptr %68, i32 0, i32 14
  %70 = trunc i32 %67 to i8
  %71 = load i8, ptr %69, align 8
  %72 = and i8 %70, 1
  %73 = shl i8 %72, 5
  %74 = and i8 %71, -33
  %75 = or i8 %74, %73
  store i8 %75, ptr %69, align 8
  br label %76

76:                                               ; preds = %62, %52
  %77 = load ptr, ptr %5, align 8, !tbaa !26
  %78 = call ptr @OSSL_PARAM_locate_const(ptr noundef %77, ptr noundef @.str.3)
  store ptr %78, ptr %7, align 8, !tbaa !26
  %79 = load ptr, ptr %7, align 8, !tbaa !26
  %80 = icmp ne ptr %79, null
  br i1 %80, label %81, label %97

81:                                               ; preds = %76
  call void @llvm.lifetime.start.p0(i64 8, ptr %10) #5
  %82 = load ptr, ptr %7, align 8, !tbaa !26
  %83 = call i32 @OSSL_PARAM_get_size_t(ptr noundef %82, ptr noundef %10)
  %84 = icmp ne i32 %83, 0
  br i1 %84, label %86, label %85

85:                                               ; preds = %81
  call void @ERR_new()
  call void @ERR_set_debug(ptr noundef @.str, i32 noundef 249, ptr noundef @__func__.ossl_aes_gcm_siv_set_ctx_params)
  call void (i32, i32, ptr, ...) @ERR_set_error(i32 noundef 57, i32 noundef 103, ptr noundef null)
  store i32 0, ptr %3, align 4
  store i32 1, ptr %9, align 4
  br label %94

86:                                               ; preds = %81
  %87 = load i64, ptr %10, align 8, !tbaa !25
  %88 = load ptr, ptr %6, align 8, !tbaa !7
  %89 = getelementptr inbounds nuw %struct.prov_aes_gcm_siv_ctx_st, ptr %88, i32 0, i32 6
  %90 = load i64, ptr %89, align 8, !tbaa !35
  %91 = icmp ne i64 %87, %90
  br i1 %91, label %92, label %93

92:                                               ; preds = %86
  call void @ERR_new()
  call void @ERR_set_debug(ptr noundef @.str, i32 noundef 254, ptr noundef @__func__.ossl_aes_gcm_siv_set_ctx_params)
  call void (i32, i32, ptr, ...) @ERR_set_error(i32 noundef 57, i32 noundef 105, ptr noundef null)
  store i32 0, ptr %3, align 4
  store i32 1, ptr %9, align 4
  br label %94

93:                                               ; preds = %86
  store i32 0, ptr %9, align 4
  br label %94

94:                                               ; preds = %93, %92, %85
  call void @llvm.lifetime.end.p0(i64 8, ptr %10) #5
  %95 = load i32, ptr %9, align 4
  switch i32 %95, label %98 [
    i32 0, label %96
  ]

96:                                               ; preds = %94
  br label %97

97:                                               ; preds = %96, %76
  store i32 1, ptr %3, align 4
  store i32 1, ptr %9, align 4
  br label %98

98:                                               ; preds = %97, %94, %61, %31, %15
  call void @llvm.lifetime.end.p0(i64 4, ptr %8) #5
  call void @llvm.lifetime.end.p0(i64 8, ptr %7) #5
  call void @llvm.lifetime.end.p0(i64 8, ptr %6) #5
  %99 = load i32, ptr %3, align 4
  ret i32 %99
}