; Function Attrs: nounwind uwtable
define internal range(i32 0, 2) i32 @ossl_aes_gcm_siv_set_ctx_params(ptr noundef captures(none) %0, ptr noundef %1) #0 {
  %3 = alloca i32, align 4
  %4 = alloca i64, align 8
  call void @llvm.lifetime.start.p0(i64 4, ptr nonnull %3) #5
  store i32 0, ptr %3, align 4, !tbaa !29
  %5 = icmp eq ptr %1, null
  br i1 %5, label %ossl_param_is_empty.exit.thread, label %ossl_param_is_empty.exit

ossl_param_is_empty.exit:                         ; preds = %2
  %6 = load ptr, ptr %1, align 8, !tbaa !30
  %.not = icmp eq ptr %6, null
  br i1 %.not, label %ossl_param_is_empty.exit.thread, label %7

7:                                                ; preds = %ossl_param_is_empty.exit
  %8 = tail call ptr @OSSL_PARAM_locate_const(ptr noundef nonnull %1, ptr noundef nonnull @.str.1) #5
  %.not23 = icmp eq ptr %8, null
  br i1 %.not23, label %25, label %9

9:                                                ; preds = %7
  %10 = getelementptr inbounds nuw i8, ptr %8, i64 8
  %11 = load i32, ptr %10, align 8, !tbaa !26
  %.not24 = icmp eq i32 %11, 5
  br i1 %.not24, label %12, label %15

12:                                               ; preds = %9
  %13 = getelementptr inbounds nuw i8, ptr %8, i64 24
  %14 = load i64, ptr %13, align 8, !tbaa !28
  %.not25 = icmp eq i64 %14, 16
  br i1 %.not25, label %16, label %15

15:                                               ; preds = %12, %9
  tail call void @ERR_new() #5
  tail call void @ERR_set_debug(ptr noundef nonnull @.str, i32 noundef 228, ptr noundef nonnull @__func__.ossl_aes_gcm_siv_set_ctx_params) #5
  tail call void (i32, i32, ptr, ...) @ERR_set_error(i32 noundef 57, i32 noundef 103, ptr noundef null) #5
  br label %ossl_param_is_empty.exit.thread

16:                                               ; preds = %12
  %17 = getelementptr inbounds nuw i8, ptr %0, i64 440
  %18 = load i8, ptr %17, align 8
  %19 = and i8 %18, 1
  %.not26 = icmp eq i8 %19, 0
  br i1 %.not26, label %20, label %25

20:                                               ; preds = %16
  %21 = getelementptr inbounds nuw i8, ptr %0, i64 152
  %22 = getelementptr inbounds nuw i8, ptr %8, i64 16
  %23 = load ptr, ptr %22, align 8, !tbaa !31
  tail call void @llvm.memcpy.p0.p0.i64(ptr noundef nonnull align 8 dereferenceable(16) %21, ptr noundef nonnull align 1 dereferenceable(16) %23, i64 16, i1 false)
  %24 = or i8 %18, 2
  store i8 %24, ptr %17, align 8
  br label %25

25:                                               ; preds = %16, %20, %7
  %26 = tail call ptr @OSSL_PARAM_locate_const(ptr noundef nonnull %1, ptr noundef nonnull @.str.5) #5
  %.not27 = icmp eq ptr %26, null
  br i1 %.not27, label %37, label %27

27:                                               ; preds = %25
  %28 = call i32 @OSSL_PARAM_get_uint(ptr noundef nonnull %26, ptr noundef nonnull %3) #5
  %.not28 = icmp eq i32 %28, 0
  br i1 %.not28, label %29, label %30

29:                                               ; preds = %27
  call void @ERR_new() #5
  call void @ERR_set_debug(ptr noundef nonnull @.str, i32 noundef 239, ptr noundef nonnull @__func__.ossl_aes_gcm_siv_set_ctx_params) #5
  call void (i32, i32, ptr, ...) @ERR_set_error(i32 noundef 57, i32 noundef 103, ptr noundef null) #5
  br label %ossl_param_is_empty.exit.thread

30:                                               ; preds = %27
  %31 = load i32, ptr %3, align 4, !tbaa !29
  %.not29 = icmp eq i32 %31, 0
  %32 = getelementptr inbounds nuw i8, ptr %0, i64 440
  %33 = load i8, ptr %32, align 8
  %34 = select i1 %.not29, i8 0, i8 32
  %35 = and i8 %33, -33
  %36 = or disjoint i8 %35, %34
  store i8 %36, ptr %32, align 8
  br label %37

37:                                               ; preds = %30, %25
  %38 = call ptr @OSSL_PARAM_locate_const(ptr noundef nonnull %1, ptr noundef nonnull @.str.3) #5
  %.not30 = icmp eq ptr %38, null
  br i1 %.not30, label %ossl_param_is_empty.exit.thread, label %39

39:                                               ; preds = %37
  call void @llvm.lifetime.start.p0(i64 8, ptr nonnull %4) #5
  %40 = call i32 @OSSL_PARAM_get_size_t(ptr noundef nonnull %38, ptr noundef nonnull %4) #5
  %.not31 = icmp eq i32 %40, 0
  br i1 %.not31, label %.critedge, label %41

41:                                               ; preds = %39
  %42 = load i64, ptr %4, align 8, !tbaa !25
  %43 = getelementptr inbounds nuw i8, ptr %0, i64 48
  %44 = load i64, ptr %43, align 8, !tbaa !3
  %.not32 = icmp eq i64 %42, %44
  br i1 %.not32, label %45, label %.critedge

45:                                               ; preds = %41
  call void @llvm.lifetime.end.p0(i64 8, ptr nonnull %4) #5
  br label %ossl_param_is_empty.exit.thread

.critedge:                                        ; preds = %41, %39
  %.sink34 = phi i32 [ 249, %39 ], [ 254, %41 ]
  %.sink = phi i32 [ 103, %39 ], [ 105, %41 ]
  call void @ERR_new() #5
  call void @ERR_set_debug(ptr noundef nonnull @.str, i32 noundef %.sink34, ptr noundef nonnull @__func__.ossl_aes_gcm_siv_set_ctx_params) #5
  call void (i32, i32, ptr, ...) @ERR_set_error(i32 noundef 57, i32 noundef %.sink, ptr noundef null) #5
  call void @llvm.lifetime.end.p0(i64 8, ptr nonnull %4) #5
  br label %ossl_param_is_empty.exit.thread

ossl_param_is_empty.exit.thread:                  ; preds = %2, %37, %45, %.critedge, %ossl_param_is_empty.exit, %29, %15
  %.019 = phi i32 [ 0, %15 ], [ 0, %29 ], [ 1, %ossl_param_is_empty.exit ], [ 0, %.critedge ], [ 1, %45 ], [ 1, %37 ], [ 1, %2 ]
  call void @llvm.lifetime.end.p0(i64 4, ptr nonnull %3) #5
  ret i32 %.019
}